; Function Attrs: mustprogress uwtable
define void @_Z4sha1RKNSt7__cxx1112basic_stringIcSt11char_traitsIcESaIcEEE(ptr dead_on_unwind noalias writable sret(%"class.std::__cxx11::basic_string") align 8 %0, ptr noundef nonnull align 8 dereferenceable(32) %1) local_unnamed_addr #3 personality ptr @__gxx_personality_v0 {
  %3 = alloca %class.SHA1, align 8
  call void @llvm.lifetime.start.p0(i64 64, ptr nonnull %3) #17
  call void @_ZN4SHA1C1Ev(ptr noundef nonnull align 8 dereferenceable(64) %3)
  invoke void @_ZN4SHA16updateERKNSt7__cxx1112basic_stringIcSt11char_traitsIcESaIcEEE(ptr noundef nonnull align 8 dereferenceable(64) %3, ptr noundef nonnull align 8 dereferenceable(32) %1)
          to label %4 unwind label %15

4:                                                ; preds = %2
  invoke void @_ZN4SHA15finalB5cxx11Ev(ptr dead_on_unwind writable sret(%"class.std::__cxx11::basic_string") align 8 %0, ptr noundef nonnull align 8 dereferenceable(64) %3)
          to label %5 unwind label %15

5:                                                ; preds = %4
  %6 = getelementptr inbounds nuw i8, ptr %3, i64 24
  %7 = load ptr, ptr %6, align 8, !tbaa !20
  %8 = getelementptr inbounds nuw i8, ptr %3, i64 40
  %9 = icmp eq ptr %7, %8
  br i1 %9, label %_ZNKSt7__cxx1112basic_stringIcSt11char_traitsIcESaIcEE11_M_is_localEv.exit.thread.i.i.i, label %_ZNKSt7__cxx1112basic_stringIcSt11char_traitsIcESaIcEE11_M_is_localEv.exit.i.i.i

_ZNKSt7__cxx1112basic_stringIcSt11char_traitsIcESaIcEE11_M_is_localEv.exit.thread.i.i.i: ; preds = %5
  %10 = getelementptr inbounds nuw i8, ptr %3, i64 32
  %11 = load i64, ptr %10, align 8, !tbaa !12
  %12 = icmp ult i64 %11, 16
  call void @llvm.assume(i1 %12)
  br label %_ZN4SHA1D2Ev.exit

_ZNKSt7__cxx1112basic_stringIcSt11char_traitsIcESaIcEE11_M_is_localEv.exit.i.i.i: ; preds = %5
  %13 = load i64, ptr %8, align 8, !tbaa !15
  %14 = add i64 %13, 1
  call void @_ZdlPvm(ptr noundef %7, i64 noundef %14) #16
  br label %_ZN4SHA1D2Ev.exit

_ZN4SHA1D2Ev.exit:                                ; preds = %_ZNKSt7__cxx1112basic_stringIcSt11char_traitsIcESaIcEE11_M_is_localEv.exit.thread.i.i.i, %_ZNKSt7__cxx1112basic_stringIcSt11char_traitsIcESaIcEE11_M_is_localEv.exit.i.i.i
  call void @llvm.lifetime.end.p0(i64 64, ptr nonnull %3) #17
  ret void

15:                                               ; preds = %4, %2
  %16 = landingpad { ptr, i32 }
          cleanup
  %17 = getelementptr inbounds nuw i8, ptr %3, i64 24
  %18 = load ptr, ptr %17, align 8, !tbaa !20
  %19 = getelementptr inbounds nuw i8, ptr %3, i64 40
  %20 = icmp eq ptr %18, %19
  br i1 %20, label %_ZNKSt7__cxx1112basic_stringIcSt11char_traitsIcESaIcEE11_M_is_localEv.exit.thread.i.i.i3, label %_ZNKSt7__cxx1112basic_stringIcSt11char_traitsIcESaIcEE11_M_is_localEv.exit.i.i.i2

_ZNKSt7__cxx1112basic_stringIcSt11char_traitsIcESaIcEE11_M_is_localEv.exit.thread.i.i.i3: ; preds = %15
  %21 = getelementptr inbounds nuw i8, ptr %3, i64 32
  %22 = load i64, ptr %21, align 8, !tbaa !12
  %23 = icmp ult i64 %22, 16
  call void @llvm.assume(i1 %23)
  br label %_ZN4SHA1D2Ev.exit4

_ZNKSt7__cxx1112basic_stringIcSt11char_traitsIcESaIcEE11_M_is_localEv.exit.i.i.i2: ; preds = %15
  %24 = load i64, ptr %19, align 8, !tbaa !15
  %25 = add i64 %24, 1
  call void @_ZdlPvm(ptr noundef %18, i64 noundef %25) #16
  br label %_ZN4SHA1D2Ev.exit4

_ZN4SHA1D2Ev.exit4:                               ; preds = %_ZNKSt7__cxx1112basic_stringIcSt11char_traitsIcESaIcEE11_M_is_localEv.exit.thread.i.i.i3, %_ZNKSt7__cxx1112basic_stringIcSt11char_traitsIcESaIcEE11_M_is_localEv.exit.i.i.i2
  call void @llvm.lifetime.end.p0(i64 64, ptr nonnull %3) #17
  resume { ptr, i32 } %16
}